; Function Attrs: mustprogress nounwind uwtable
define dso_local noundef nonnull ptr @_ZN5clang9ModuleMap33createModuleForImplementationUnitENS_14SourceLocationEN4llvm9StringRefE(ptr noundef nonnull align 8 dereferenceable(1344) %0, i32 %1, ptr %2, i64 %3) local_unnamed_addr #1 align 2 {
  %5 = tail call noundef ptr @_ZN5clang9ModuleMap24createModuleUnitWithKindENS_14SourceLocationEN4llvm9StringRefENS_6Module10ModuleKindE(ptr noundef nonnull align 8 dereferenceable(1344) %0, i32 %1, ptr %2, i64 %3, i32 noundef 3)
  %6 = getelementptr inbounds nuw i8, ptr %0, i64 920
  store ptr %5, ptr %6, align 8
  %7 = getelementptr inbounds nuw i8, ptr %0, i64 1008
  %8 = tail call noundef i32 @_ZN4llvm13StringMapImpl4hashENS_9StringRefE(ptr nonnull @.str.5, i64 19) #21
  %9 = tail call { ptr, i8 } @_ZN4llvm9StringMapIPN5clang6ModuleENS_15MallocAllocatorEE21try_emplace_with_hashIJEEESt4pairINS_17StringMapIteratorIS3_EEbENS_9StringRefEjDpOT_(ptr noundef nonnull align 8 dereferenceable(24) %7, ptr nonnull @.str.5, i64 19, i32 noundef %8)
  %.fca.0.extract.i = extractvalue { ptr, i8 } %9, 0
  %10 = load ptr, ptr %.fca.0.extract.i, align 8
  %11 = getelementptr inbounds nuw i8, ptr %10, i64 8
  store ptr %5, ptr %11, align 8
  ret ptr %5
}